(dp0
S'METTS MARK'
p1
(dp2
S'salary'
p3
F365788.0
sS'to_messages'
p4
F807.0
sS'total_payments'
p5
F1061827.0
sS'bonus'
p6
F600000.0
sS'bonus_salary_ratio'
p7
F1.6402943781644013
sS'total_stock_value'
p8
F585062.0
sS'shared_receipt_with_poi'
p9
F702.0
sS'exercised_stock_options'
p10
F0.0
sS'poi'
p11
I00
sS'long_term_incentive'
p12
F0.0
sS'restricted_stock'
p13
F585062.0
sS'bonus_tp_ratio'
p14
F0.5650638004119315
ssS'BAXTER JOHN C'
p15
(dp16
g3
F267102.0
sg4
F0.0
sg5
F5634343.0
sg6
F1200000.0
sg7
F4.492665723206865
sg8
F10623258.0
sg9
F0.0
sg10
F6680544.0
sg11
I00
sg12
F1586055.0
sg13
F3942714.0
sg14
F0.21297957898551792
ssS'ELLIOTT STEVEN'
p17
(dp18
g3
F170941.0
sg4
F0.0
sg5
F211725.0
sg6
F350000.0
sg7
F2.047490069673162
sg8
F6678735.0
sg9
F0.0
sg10
F4890344.0
sg11
I00
sg12
F0.0
sg13
F1788391.0
sg14
F1.6530877317274766
ssS'CORDES WILLIAM R'
p19
(dp20
g3
F0.0
sg4
F764.0
sg5
F0.0
sg6
F0.0
sg7
F0.0
sg8
F1038185.0
sg9
F58.0
sg10
F651850.0
sg11
I00
sg12
F0.0
sg13
F386335.0
sg14
F0.0
ssS'HANNON KEVIN P'
p21
(dp22
g3
F243293.0
sg4
F1045.0
sg5
F288682.0
sg6
F1500000.0
sg7
F6.165405498719651
sg8
F6391065.0
sg9
F1035.0
sg10
F5538001.0
sg11
I01
sg12
F1617011.0
sg13
F853064.0
sg14
F5.196028848352166
ssS'MORDAUNT KRISTINA M'
p23
(dp24
g3
F267093.0
sg4
F0.0
sg5
F628522.0
sg6
F325000.0
sg7
F1.2168046335920448
sg8
F208510.0
sg9
F0.0
sg10
F0.0
sg11
I00
sg12
F0.0
sg13
F208510.0
sg14
F0.5170861163173286
ssS'MEYER ROCKFORD G'
p25
(dp26
g3
F0.0
sg4
F232.0
sg5
F1848227.0
sg6
F0.0
sg7
F0.0
sg8
F955873.0
sg9
F22.0
sg10
F493489.0
sg11
I00
sg12
F0.0
sg13
F462384.0
sg14
F0.0
ssS'MCMAHON JEFFREY'
p27
(dp28
g3
F370448.0
sg4
F2355.0
sg5
F4099771.0
sg6
F2600000.0
sg7
F7.018528916339135
sg8
F1662855.0
sg9
F2228.0
sg10
F1104054.0
sg11
I00
sg12
F694862.0
sg13
F558801.0
sg14
F0.6341817628350461
ssS'HORTON STANLEY C'
p29
(dp30
g3
F0.0
sg4
F2350.0
sg5
F3131860.0
sg6
F0.0
sg7
F0.0
sg8
F7256648.0
sg9
F1074.0
sg10
F5210569.0
sg11
I00
sg12
F0.0
sg13
F2046079.0
sg14
F0.0
ssS'PIPER GREGORY F'
p31
(dp32
g3
F197091.0
sg4
F1238.0
sg5
F1737629.0
sg6
F400000.0
sg7
F2.0295193590777862
sg8
F880290.0
sg9
F742.0
sg10
F880290.0
sg11
I00
sg12
F0.0
sg13
F409554.0
sg14
F0.23019873632403695
ssS'HUMPHREY GENE E'
p33
(dp34
g3
F130724.0
sg4
F128.0
sg5
F3100224.0
sg6
F0.0
sg7
F0.0
sg8
F2282768.0
sg9
F119.0
sg10
F2282768.0
sg11
I00
sg12
F0.0
sg13
F0.0
sg14
F0.0
ssS'UMANOFF ADAM S'
p35
(dp36
g3
F288589.0
sg4
F111.0
sg5
F1130461.0
sg6
F788750.0
sg7
F2.7331256562100426
sg8
F0.0
sg9
F41.0
sg10
F0.0
sg11
I00
sg12
F0.0
sg13
F0.0
sg14
F0.6977242027809893
ssS'BLACHMAN JEREMY M'
p37
(dp38
g3
F248546.0
sg4
F2475.0
sg5
F2014835.0
sg6
F850000.0
sg7
F3.419890080709406
sg8
F954354.0
sg9
F2326.0
sg10
F765313.0
sg11
I00
sg12
F831809.0
sg13
F189041.0
sg14
F0.4218707735372872
ssS'SUNDE MARTIN'
p39
(dp40
g3
F257486.0
sg4
F2647.0
sg5
F1545059.0
sg6
F700000.0
sg7
F2.7185944090164127
sg8
F698920.0
sg9
F2565.0
sg10
F0.0
sg11
I00
sg12
F476451.0
sg13
F698920.0
sg14
F0.4530571324460749
ssS'GIBBS DANA R'
p41
(dp42
g3
F0.0
sg4
F169.0
sg5
F966522.0
sg6
F0.0
sg7
F0.0
sg8
F2218275.0
sg9
F23.0
sg10
F2218275.0
sg11
I00
sg12
F461912.0
sg13
F0.0
sg14
F0.0
ssS'LOWRY CHARLES P'
p43
(dp44
g3
F0.0
sg4
F0.0
sg5
F0.0
sg6
F0.0
sg7
F0.0
sg8
F372205.0
sg9
F0.0
sg10
F372205.0
sg11
I00
sg12
F0.0
sg13
F153686.0
sg14
F0.0
ssS'COLWELL WESLEY'
p45
(dp46
g3
F288542.0
sg4
F1758.0
sg5
F1490344.0
sg6
F1200000.0
sg7
F4.158839960906905
sg8
F698242.0
sg9
F1132.0
sg10
F0.0
sg11
I01
sg12
F0.0
sg13
F698242.0
sg14
F0.8051832328643588
ssS'MULLER MARK S'
p47
(dp48
g3
F251654.0
sg4
F136.0
sg5
F3202070.0
sg6
F1100000.0
sg7
F4.3710809285765375
sg8
F1416848.0
sg9
F114.0
sg10
F1056320.0
sg11
I00
sg12
F1725545.0
sg13
F360528.0
sg14
F0.3435277804670104
ssS'JACKSON CHARLENE R'
p49
(dp50
g3
F288558.0
sg4
F258.0
sg5
F551174.0
sg6
F250000.0
sg7
F0.8663769502145149
sg8
F725735.0
sg9
F117.0
sg10
F185063.0
sg11
I00
sg12
F0.0
sg13
F540672.0
sg14
F0.453577273238578
ssS'WESTFAHL RICHARD K'
p51
(dp52
g3
F63744.0
sg4
F0.0
sg5
F762135.0
sg6
F0.0
sg7
F0.0
sg8
F384930.0
sg9
F0.0
sg10
F0.0
sg11
I00
sg12
F256191.0
sg13
F384930.0
sg14
F0.0
ssS'WALTERS GARETH W'
p53
(dp54
g3
F0.0
sg4
F0.0
sg5
F87410.0
sg6
F0.0
sg7
F0.0
sg8
F1030329.0
sg9
F0.0
sg10
F1030329.0
sg11
I00
sg12
F0.0
sg13
F0.0
sg14
F0.0
ssS'WALLS JR ROBERT H'
p55
(dp56
g3
F357091.0
sg4
F671.0
sg5
F1798780.0
sg6
F850000.0
sg7
F2.380345626184922
sg8
F5898997.0
sg9
F215.0
sg10
F4346544.0
sg11
I00
sg12
F540751.0
sg13
F1552453.0
sg14
F0.47254250102847484
ssS'KITCHEN LOUISE'
p57
(dp58
g3
F271442.0
sg4
F8305.0
sg5
F3471141.0
sg6
F3100000.0
sg7
F11.420487617981005
sg8
F547143.0
sg9
F3669.0
sg10
F81042.0
sg11
I00
sg12
F0.0
sg13
F466101.0
sg14
F0.8930780973748977
ssS'CHAN RONNIE'
p59
(dp60
g3
F0.0
sg4
F0.0
sg5
F0.0
sg6
F0.0
sg7
F0.0
sg8
F0.0
sg9
F0.0
sg10
F0.0
sg11
I00
sg12
F0.0
sg13
F32460.0
sg14
F0.0
ssS'BELFER ROBERT'
p61
(dp62
g3
F0.0
sg4
F0.0
sg5
F3285.0
sg6
F0.0
sg7
F0.0
sg8
F0.0
sg9
F0.0
sg10
F0.0
sg11
I00
sg12
F0.0
sg13
F44093.0
sg14
F0.0
ssS'SHANKMAN JEFFREY A'
p63
(dp64
g3
F304110.0
sg4
F3221.0
sg5
F3038702.0
sg6
F2000000.0
sg7
F6.576567689322943
sg8
F2072035.0
sg9
F1730.0
sg10
F1441898.0
sg11
I00
sg12
F554422.0
sg13
F630137.0
sg14
F0.6581757605714545
ssS'WODRASKA JOHN'
p65
(dp66
g3
F0.0
sg4
F0.0
sg5
F189583.0
sg6
F0.0
sg7
F0.0
sg8
F0.0
sg9
F0.0
sg10
F0.0
sg11
I00
sg12
F0.0
sg13
F0.0
sg14
F0.0
ssS'BERGSIEKER RICHARD P'
p67
(dp68
g3
F187922.0
sg4
F383.0
sg5
F618850.0
sg6
F250000.0
sg7
F1.3303391832781686
sg8
F659249.0
sg9
F233.0
sg10
F0.0
sg11
I00
sg12
F180250.0
sg13
F659249.0
sg14
F0.4039751151329078
ssS'URQUHART JOHN A'
p69
(dp70
g3
F0.0
sg4
F0.0
sg5
F228656.0
sg6
F0.0
sg7
F0.0
sg8
F0.0
sg9
F0.0
sg10
F0.0
sg11
I00
sg12
F0.0
sg13
F0.0
sg14
F0.0
ssS'BIBI PHILIPPE A'
p71
(dp72
g3
F213625.0
sg4
F1607.0
sg5
F2047593.0
sg6
F1000000.0
sg7
F4.681100058513751
sg8
F1843816.0
sg9
F1336.0
sg10
F1465734.0
sg11
I00
sg12
F369721.0
sg13
F378082.0
sg14
F0.4883783056496091
ssS'PIRO JIM'
p73
(dp74
g3
F0.0
sg4
F58.0
sg5
F0.0
sg6
F0.0
sg7
F0.0
sg8
F47304.0
sg9
F3.0
sg10
F0.0
sg11
I00
sg12
F0.0
sg13
F47304.0
sg14
F0.0
ssS'RIEKER PAULA H'
p75
(dp76
g3
F249201.0
sg4
F1328.0
sg5
F1099100.0
sg6
F700000.0
sg7
F2.8089774920646384
sg8
F1918887.0
sg9
F1258.0
sg10
F1635238.0
sg11
I01
sg12
F0.0
sg13
F283649.0
sg14
F0.6368847238649804
ssS'WHALEY DAVID A'
p77
(dp78
g3
F0.0
sg4
F0.0
sg5
F0.0
sg6
F0.0
sg7
F0.0
sg8
F98718.0
sg9
F0.0
sg10
F98718.0
sg11
I00
sg12
F0.0
sg13
F0.0
sg14
F0.0
ssS'BECK SALLY W'
p79
(dp80
g3
F231330.0
sg4
F7315.0
sg5
F969068.0
sg6
F700000.0
sg7
F3.025980201443825
sg8
F126027.0
sg9
F2639.0
sg10
F0.0
sg11
I00
sg12
F0.0
sg13
F126027.0
sg14
F0.7223435300721931
ssS'HAUG DAVID L'
p81
(dp82
g3
F0.0
sg4
F573.0
sg5
F475.0
sg6
F0.0
sg7
F0.0
sg8
F2217299.0
sg9
F471.0
sg10
F0.0
sg11
I00
sg12
F0.0
sg13
F2217299.0
sg14
F0.0
ssS'ECHOLS JOHN B'
p83
(dp84
g3
F182245.0
sg4
F0.0
sg5
F2692324.0
sg6
F200000.0
sg7
F1.0974237976350518
sg8
F1008941.0
sg9
F0.0
sg10
F601438.0
sg11
I00
sg12
F2234774.0
sg13
F407503.0
sg14
F0.07428526432925606
ssS'MENDELSOHN JOHN'
p85
(dp86
g3
F0.0
sg4
F0.0
sg5
F148.0
sg6
F0.0
sg7
F0.0
sg8
F0.0
sg9
F0.0
sg10
F0.0
sg11
I00
sg12
F0.0
sg13
F0.0
sg14
F0.0
ssS'HICKERSON GARY J'
p87
(dp88
g3
F211788.0
sg4
F1320.0
sg5
F2081796.0
sg6
F1700000.0
sg7
F8.02689481934765
sg8
F441096.0
sg9
F900.0
sg10
F0.0
sg11
I00
sg12
F69223.0
sg13
F441096.0
sg14
F0.8166025873812804
ssS'CLINE KENNETH W'
p89
(dp90
g3
F0.0
sg4
F0.0
sg5
F0.0
sg6
F0.0
sg7
F0.0
sg8
F189518.0
sg9
F0.0
sg10
F0.0
sg11
I00
sg12
F0.0
sg13
F662086.0
sg14
F0.0
ssS'LEWIS RICHARD'
p91
(dp92
g3
F0.0
sg4
F952.0
sg5
F0.0
sg6
F0.0
sg7
F0.0
sg8
F850477.0
sg9
F739.0
sg10
F850477.0
sg11
I00
sg12
F0.0
sg13
F0.0
sg14
F0.0
ssS'HAYES ROBERT E'
p93
(dp94
g3
F0.0
sg4
F504.0
sg5
F7961.0
sg6
F0.0
sg7
F0.0
sg8
F151418.0
sg9
F50.0
sg10
F0.0
sg11
I00
sg12
F0.0
sg13
F151418.0
sg14
F0.0
ssS'KOPPER MICHAEL J'
p95
(dp96
g3
F224305.0
sg4
F0.0
sg5
F2652612.0
sg6
F800000.0
sg7
F3.5665723011078665
sg8
F985032.0
sg9
F0.0
sg10
F0.0
sg11
I01
sg12
F602671.0
sg13
F985032.0
sg14
F0.30158952760524343
ssS'LEFF DANIEL P'
p97
(dp98
g3
F273746.0
sg4
F2822.0
sg5
F2664228.0
sg6
F1000000.0
sg7
F3.653021414011529
sg8
F360528.0
sg9
F2672.0
sg10
F0.0
sg11
I00
sg12
F1387399.0
sg13
F360528.0
sg14
F0.3753432514034084
ssS'LAVORATO JOHN J'
p99
(dp100
g3
F339288.0
sg4
F7259.0
sg5
F10425757.0
sg6
F8000000.0
sg7
F23.57878852184575
sg8
F5167144.0
sg9
F3962.0
sg10
F4158995.0
sg11
I00
sg12
F2035380.0
sg13
F1008149.0
sg14
F0.767330372269371
ssS'BERBERIAN DAVID'
p101
(dp102
g3
F216582.0
sg4
F0.0
sg5
F228474.0
sg6
F0.0
sg7
F0.0
sg8
F2493616.0
sg9
F0.0
sg10
F1624396.0
sg11
I00
sg12
F0.0
sg13
F869220.0
sg14
F0.0
ssS'DETMERING TIMOTHY J'
p103
(dp104
g3
F210500.0
sg4
F0.0
sg5
F1204583.0
sg6
F425000.0
sg7
F2.019002375296912
sg8
F2027865.0
sg9
F0.0
sg10
F2027865.0
sg11
I00
sg12
F415657.0
sg13
F315068.0
sg14
F0.3528191913716199
ssS'WAKEHAM JOHN'
p105
(dp106
g3
F0.0
sg4
F0.0
sg5
F213071.0
sg6
F0.0
sg7
F0.0
sg8
F0.0
sg9
F0.0
sg10
F0.0
sg11
I00
sg12
F0.0
sg13
F0.0
sg14
F0.0
ssS'POWERS WILLIAM'
p107
(dp108
g3
F0.0
sg4
F653.0
sg5
F0.0
sg6
F0.0
sg7
F0.0
sg8
F0.0
sg9
F12.0
sg10
F0.0
sg11
I00
sg12
F0.0
sg13
F0.0
sg14
F0.0
ssS'GOLD JOSEPH'
p109
(dp110
g3
F272880.0
sg4
F0.0
sg5
F2146973.0
sg6
F750000.0
sg7
F2.748460861917326
sg8
F877611.0
sg9
F0.0
sg10
F436515.0
sg11
I00
sg12
F304805.0
sg13
F441096.0
sg14
F0.34932903208377564
ssS'BANNANTINE JAMES M'
p111
(dp112
g3
F477.0
sg4
F566.0
sg5
F916197.0
sg6
F0.0
sg7
F0.0
sg8
F5243487.0
sg9
F465.0
sg10
F4046157.0
sg11
I00
sg12
F0.0
sg13
F1757552.0
sg14
F0.0
ssS'DUNCAN JOHN H'
p113
(dp114
g3
F0.0
sg4
F0.0
sg5
F77492.0
sg6
F0.0
sg7
F0.0
sg8
F371750.0
sg9
F0.0
sg10
F371750.0
sg11
I00
sg12
F0.0
sg13
F0.0
sg14
F0.0
ssS'SHAPIRO RICHARD S'
p115
(dp116
g3
F269076.0
sg4
F15149.0
sg5
F1057548.0
sg6
F650000.0
sg7
F2.4156743819590005
sg8
F987001.0
sg9
F4527.0
sg10
F607837.0
sg11
I00
sg12
F0.0
sg13
F379164.0
sg14
F0.6146293123338137
ssS'SHERRIFF JOHN R'
p117
(dp118
g3
F428780.0
sg4
F3187.0
sg5
F4335388.0
sg6
F1500000.0
sg7
F3.4982974952189934
sg8
F3128982.0
sg9
F2103.0
sg10
F1835558.0
sg11
I00
sg12
F554422.0
sg13
F1293424.0
sg14
F0.34598979376240374
ssS'SHELBY REX'
p119
(dp120
g3
F211844.0
sg4
F225.0
sg5
F2003885.0
sg6
F200000.0
sg7
F0.9440909348388437
sg8
F2493616.0
sg9
F91.0
sg10
F1624396.0
sg11
I01
sg12
F0.0
sg13
F869220.0
sg14
F0.09980612659908128
ssS'LEMAISTRE CHARLES'
p121
(dp122
g3
F0.0
sg4
F0.0
sg5
F87492.0
sg6
F0.0
sg7
F0.0
sg8
F412878.0
sg9
F0.0
sg10
F412878.0
sg11
I00
sg12
F0.0
sg13
F0.0
sg14
F0.0
ssS'DEFFNER JOSEPH M'
p123
(dp124
g3
F206121.0
sg4
F714.0
sg5
F1208649.0
sg6
F600000.0
sg7
F2.910911551952494
sg8
F159211.0
sg9
F552.0
sg10
F17378.0
sg11
I00
sg12
F335349.0
sg13
F141833.0
sg14
F0.49642203815996205
ssS'KISHKILL JOSEPH G'
p125
(dp126
g3
F174246.0
sg4
F0.0
sg5
F704896.0
sg6
F0.0
sg7
F0.0
sg8
F1034346.0
sg9
F0.0
sg10
F0.0
sg11
I00
sg12
F0.0
sg13
F1034346.0
sg14
F0.0
ssS'WHALLEY LAWRENCE G'
p127
(dp128
g3
F510364.0
sg4
F6019.0
sg5
F4677574.0
sg6
F3000000.0
sg7
F5.878157550297435
sg8
F6079137.0
sg9
F3920.0
sg10
F3282960.0
sg11
I00
sg12
F808346.0
sg13
F2796177.0
sg14
F0.6413581057189047
ssS'MCCARTY DANNY J'
p129
(dp130
g3
F0.0
sg4
F1433.0
sg5
F0.0
sg6
F0.0
sg7
F0.0
sg8
F758931.0
sg9
F508.0
sg10
F664375.0
sg11
I00
sg12
F0.0
sg13
F94556.0
sg14
F0.0
ssS'MCCONNELL MICHAEL S'
p131
(dp132
g3
F365038.0
sg4
F3329.0
sg5
F2101364.0
sg6
F1100000.0
sg7
F3.013384907872605
sg8
F3101279.0
sg9
F2189.0
sg10
F1623010.0
sg11
I00
sg12
F554422.0
sg13
F1478269.0
sg14
F0.5234695178940917
ssS'DELAINEY DAVID W'
p133
(dp134
g3
F365163.0
sg4
F3093.0
sg5
F4747979.0
sg6
F3000000.0
sg7
F8.215509238340138
sg8
F3614261.0
sg9
F2097.0
sg10
F2291113.0
sg11
I01
sg12
F1294981.0
sg13
F1323148.0
sg14
F0.6318477819720769
ssS'SULLIVAN-SHAKLOVITZ COLLEEN'
p135
(dp136
g3
F162779.0
sg4
F0.0
sg5
F999356.0
sg6
F100000.0
sg7
F0.6143298582741017
sg8
F1362375.0
sg9
F0.0
sg10
F1362375.0
sg11
I00
sg12
F554422.0
sg13
F0.0
sg14
F0.10006444150032621
ssS'WROBEL BRUCE'
p137
(dp138
g3
F0.0
sg4
F0.0
sg5
F0.0
sg6
F0.0
sg7
F0.0
sg8
F139130.0
sg9
F0.0
sg10
F139130.0
sg11
I00
sg12
F0.0
sg13
F0.0
sg14
F0.0
ssS'LINDHOLM TOD A'
p139
(dp140
g3
F236457.0
sg4
F0.0
sg5
F875889.0
sg6
F200000.0
sg7
F0.8458197473536415
sg8
F3064208.0
sg9
F0.0
sg10
F2549361.0
sg11
I00
sg12
F175000.0
sg13
F514847.0
sg14
F0.22833943570475254
ssS'MEYER JEROME J'
p141
(dp142
g3
F0.0
sg4
F0.0
sg5
F2151.0
sg6
F0.0
sg7
F0.0
sg8
F0.0
sg9
F0.0
sg10
F0.0
sg11
I00
sg12
F0.0
sg13
F0.0
sg14
F0.0
ssS'LAY KENNETH L'
p143
(dp144
g3
F1072321.0
sg4
F4273.0
sg5
F103559793.0
sg6
F7000000.0
sg7
F6.527896031132468
sg8
F49110078.0
sg9
F2411.0
sg10
F34348384.0
sg11
I01
sg12
F3600000.0
sg13
F14761694.0
sg14
F0.06759380061719514
ssS'BUTTS ROBERT H'
p145
(dp146
g3
F261516.0
sg4
F0.0
sg5
F1271582.0
sg6
F750000.0
sg7
F2.8678933602532926
sg8
F417619.0
sg9
F0.0
sg10
F0.0
sg11
I00
sg12
F175000.0
sg13
F417619.0
sg14
F0.5898164648445794
ssS'OLSON CINDY K'
p147
(dp148
g3
F329078.0
sg4
F1184.0
sg5
F1321557.0
sg6
F750000.0
sg7
F2.279094925823057
sg8
F2606763.0
sg9
F856.0
sg10
F1637034.0
sg11
I00
sg12
F100000.0
sg13
F969729.0
sg14
F0.5675124114964394
ssS'MCDONALD REBECCA'
p149
(dp150
g3
F0.0
sg4
F894.0
sg5
F0.0
sg6
F0.0
sg7
F0.0
sg8
F1691366.0
sg9
F720.0
sg10
F757301.0
sg11
I00
sg12
F0.0
sg13
F934065.0
sg14
F0.0
ssS'CUMBERLAND MICHAEL S'
p151
(dp152
g3
F184899.0
sg4
F0.0
sg5
F807956.0
sg6
F325000.0
sg7
F1.7577163748857485
sg8
F207940.0
sg9
F0.0
sg10
F0.0
sg11
I00
sg12
F275000.0
sg13
F207940.0
sg14
F0.4022496274549604
ssS'GAHN ROBERT S'
p153
(dp154
g3
F192008.0
sg4
F0.0
sg5
F900585.0
sg6
F509870.0
sg7
F2.6554622724053165
sg8
F318607.0
sg9
F0.0
sg10
F83237.0
sg11
I00
sg12
F0.0
sg13
F235370.0
sg14
F0.5661542219779365
ssS'MCCLELLAN GEORGE'
p155
(dp156
g3
F263413.0
sg4
F1744.0
sg5
F1318763.0
sg6
F900000.0
sg7
F3.4166878627858153
sg8
F947861.0
sg9
F1469.0
sg10
F506765.0
sg11
I00
sg12
F0.0
sg13
F441096.0
sg14
F0.6824577274309334
ssS'HERMANN ROBERT J'
p157
(dp158
g3
F262663.0
sg4
F0.0
sg5
F1297461.0
sg6
F700000.0
sg7
F2.665011821231007
sg8
F668132.0
sg9
F0.0
sg10
F187500.0
sg11
I00
sg12
F150000.0
sg13
F480632.0
sg14
F0.5395152532523135
ssS'SCRIMSHAW MATTHEW'
p159
(dp160
g3
F0.0
sg4
F0.0
sg5
F0.0
sg6
F0.0
sg7
F0.0
sg8
F759557.0
sg9
F0.0
sg10
F759557.0
sg11
I00
sg12
F0.0
sg13
F0.0
sg14
F0.0
ssS'GATHMANN WILLIAM D'
p161
(dp162
g3
F0.0
sg4
F0.0
sg5
F0.0
sg6
F0.0
sg7
F0.0
sg8
F1945360.0
sg9
F0.0
sg10
F1753766.0
sg11
I00
sg12
F0.0
sg13
F264013.0
sg14
F0.0
ssS'HAEDICKE MARK E'
p163
(dp164
g3
F374125.0
sg4
F4009.0
sg5
F3859065.0
sg6
F1150000.0
sg7
F3.073838957567658
sg8
F803094.0
sg9
F1847.0
sg10
F608750.0
sg11
I00
sg12
F983346.0
sg13
F524169.0
sg14
F0.29799964499172726
ssS'BOWEN JR RAYMOND M'
p165
(dp166
g3
F278601.0
sg4
F1858.0
sg5
F2669589.0
sg6
F1350000.0
sg7
F4.845639462887786
sg8
F252055.0
sg9
F1593.0
sg10
F0.0
sg11
I01
sg12
F974293.0
sg13
F252055.0
sg14
F0.5056958205926081
ssS'GILLIS JOHN'
p167
(dp168
g3
F0.0
sg4
F0.0
sg5
F0.0
sg6
F0.0
sg7
F0.0
sg8
F85641.0
sg9
F0.0
sg10
F9803.0
sg11
I00
sg12
F0.0
sg13
F75838.0
sg14
F0.0
ssS'FITZGERALD JAY L'
p169
(dp170
g3
F199157.0
sg4
F936.0
sg5
F1414857.0
sg6
F350000.0
sg7
F1.7574074724965731
sg8
F1621236.0
sg9
F723.0
sg10
F664461.0
sg11
I00
sg12
F556416.0
sg13
F956775.0
sg14
F0.24737482303865338
ssS'MORAN MICHAEL P'
p171
(dp172
g3
F0.0
sg4
F672.0
sg5
F0.0
sg6
F0.0
sg7
F0.0
sg8
F221141.0
sg9
F127.0
sg10
F59539.0
sg11
I00
sg12
F0.0
sg13
F161602.0
sg14
F0.0
ssS'REDMOND BRIAN L'
p173
(dp174
g3
F96840.0
sg4
F1671.0
sg5
F111529.0
sg6
F0.0
sg7
F0.0
sg8
F7890324.0
sg9
F1063.0
sg10
F7509039.0
sg11
I00
sg12
F0.0
sg13
F381285.0
sg14
F0.0
ssS'BAZELIDES PHILIP J'
p175
(dp176
g3
F80818.0
sg4
F0.0
sg5
F860136.0
sg6
F0.0
sg7
F0.0
sg8
F1599641.0
sg9
F0.0
sg10
F1599641.0
sg11
I00
sg12
F93750.0
sg13
F0.0
sg14
F0.0
ssS'BELDEN TIMOTHY N'
p177
(dp178
g3
F213999.0
sg4
F7991.0
sg5
F5501630.0
sg6
F5249999.0
sg7
F24.532820246823583
sg8
F1110705.0
sg9
F5521.0
sg10
F953136.0
sg11
I01
sg12
F0.0
sg13
F157569.0
sg14
F0.9542624640333864
ssS'DURAN WILLIAM D'
p179
(dp180
g3
F210692.0
sg4
F904.0
sg5
F2093263.0
sg6
F750000.0
sg7
F3.559698517266911
sg8
F1640910.0
sg9
F599.0
sg10
F1451869.0
sg11
I00
sg12
F1105218.0
sg13
F189041.0
sg14
F0.3582922929416896
ssS'THORN TERENCE H'
p181
(dp182
g3
F222093.0
sg4
F266.0
sg5
F911453.0
sg6
F0.0
sg7
F0.0
sg8
F4817796.0
sg9
F73.0
sg10
F4452476.0
sg11
I00
sg12
F200000.0
sg13
F365320.0
sg14
F0.0
ssS'FASTOW ANDREW S'
p183
(dp184
g3
F440698.0
sg4
F0.0
sg5
F2424083.0
sg6
F1300000.0
sg7
F2.949865894558178
sg8
F1794412.0
sg9
F0.0
sg10
F0.0
sg11
I01
sg12
F1736055.0
sg13
F1794412.0
sg14
F0.5362852674599013
ssS'FOY JOE'
p185
(dp186
g3
F0.0
sg4
F57.0
sg5
F181755.0
sg6
F0.0
sg7
F0.0
sg8
F343434.0
sg9
F2.0
sg10
F343434.0
sg11
I00
sg12
F0.0
sg13
F0.0
sg14
F0.0
ssS'CALGER CHRISTOPHER F'
p187
(dp188
g3
F240189.0
sg4
F2598.0
sg5
F1639297.0
sg6
F1250000.0
sg7
F5.204234998272194
sg8
F126027.0
sg9
F2188.0
sg10
F0.0
sg11
I01
sg12
F375304.0
sg13
F126027.0
sg14
F0.7625219835087845
ssS'RICE KENNETH D'
p189
(dp190
g3
F420636.0
sg4
F905.0
sg5
F505050.0
sg6
F1750000.0
sg7
F4.160366682832663
sg8
F22542539.0
sg9
F864.0
sg10
F19794175.0
sg11
I01
sg12
F1617011.0
sg13
F2748364.0
sg14
F3.465003465003465
ssS'KAMINSKI WINCENTY J'
p191
(dp192
g3
F275101.0
sg4
F4607.0
sg5
F1086821.0
sg6
F400000.0
sg7
F1.4540114357999425
sg8
F976037.0
sg9
F583.0
sg10
F850010.0
sg11
I00
sg12
F323466.0
sg13
F126027.0
sg14
F0.368045887961311
ssS'COX DAVID'
p193
(dp194
g3
F314288.0
sg4
F102.0
sg5
F1101393.0
sg6
F800000.0
sg7
F2.5454360331924857
sg8
F495633.0
sg9
F71.0
sg10
F117551.0
sg11
I00
sg12
F0.0
sg13
F378082.0
sg14
F0.7263529003725282
ssS'OVERDYKE JR JERE C'
p195
(dp196
g3
F94941.0
sg4
F0.0
sg5
F249787.0
sg6
F0.0
sg7
F0.0
sg8
F7307594.0
sg9
F0.0
sg10
F5266578.0
sg11
I00
sg12
F135836.0
sg13
F2041016.0
sg14
F0.0
ssS'PEREIRA PAULO V. FERRAZ'
p197
(dp198
g3
F0.0
sg4
F0.0
sg5
F27942.0
sg6
F0.0
sg7
F0.0
sg8
F0.0
sg9
F0.0
sg10
F0.0
sg11
I00
sg12
F0.0
sg13
F0.0
sg14
F0.0
ssS'STABLER FRANK'
p199
(dp200
g3
F239502.0
sg4
F0.0
sg5
F1112087.0
sg6
F500000.0
sg7
F2.0876652387036434
sg8
F511734.0
sg9
F0.0
sg10
F0.0
sg11
I00
sg12
F0.0
sg13
F511734.0
sg14
F0.44960511183027946
ssS'SKILLING JEFFREY K'
p201
(dp202
g3
F1111258.0
sg4
F3627.0
sg5
F8682716.0
sg6
F5600000.0
sg7
F5.03933380007163
sg8
F26093672.0
sg9
F2042.0
sg10
F19250000.0
sg11
I01
sg12
F1920000.0
sg13
F6843672.0
sg14
F0.6449594804206426
ssS'BLAKE JR. NORMAN P'
p203
(dp204
g3
F0.0
sg4
F0.0
sg5
F1279.0
sg6
F0.0
sg7
F0.0
sg8
F0.0
sg9
F0.0
sg10
F0.0
sg11
I00
sg12
F0.0
sg13
F0.0
sg14
F0.0
ssS'SHERRICK JEFFREY B'
p205
(dp206
g3
F0.0
sg4
F613.0
sg5
F0.0
sg6
F0.0
sg7
F0.0
sg8
F1832468.0
sg9
F583.0
sg10
F1426469.0
sg11
I00
sg12
F0.0
sg13
F405999.0
sg14
F0.0
ssS'PRENTICE JAMES'
p207
(dp208
g3
F0.0
sg4
F0.0
sg5
F564348.0
sg6
F0.0
sg7
F0.0
sg8
F1095040.0
sg9
F0.0
sg10
F886231.0
sg11
I00
sg12
F0.0
sg13
F208809.0
sg14
F0.0
ssS'GRAY RODNEY'
p209
(dp210
g3
F6615.0
sg4
F0.0
sg5
F1146658.0
sg6
F0.0
sg7
F0.0
sg8
F0.0
sg9
F0.0
sg10
F0.0
sg11
I00
sg12
F365625.0
sg13
F0.0
sg14
F0.0
ssS'PICKERING MARK R'
p211
(dp212
g3
F655037.0
sg4
F898.0
sg5
F1386690.0
sg6
F300000.0
sg7
F0.45798939601885086
sg8
F28798.0
sg9
F728.0
sg10
F28798.0
sg11
I00
sg12
F0.0
sg13
F0.0
sg14
F0.21634251346732147
ssS'NOLES JAMES L'
p213
(dp214
g3
F0.0
sg4
F0.0
sg5
F774401.0
sg6
F0.0
sg7
F0.0
sg8
F368705.0
sg9
F0.0
sg10
F0.0
sg11
I00
sg12
F0.0
sg13
F463261.0
sg14
F0.0
ssS'KEAN STEVEN J'
p215
(dp216
g3
F404338.0
sg4
F12754.0
sg5
F1747522.0
sg6
F1000000.0
sg7
F2.473178380463869
sg8
F6153642.0
sg9
F3639.0
sg10
F2022048.0
sg11
I00
sg12
F300000.0
sg13
F4131594.0
sg14
F0.5722388616566773
ssS'FOWLER PEGGY'
p217
(dp218
g3
F0.0
sg4
F517.0
sg5
F0.0
sg6
F0.0
sg7
F0.0
sg8
F1884748.0
sg9
F10.0
sg10
F1324578.0
sg11
I00
sg12
F0.0
sg13
F560170.0
sg14
F0.0
ssS'WASAFF GEORGE'
p219
(dp220
g3
F259996.0
sg4
F400.0
sg5
F1034395.0
sg6
F325000.0
sg7
F1.2500192310650933
sg8
F2056427.0
sg9
F337.0
sg10
F1668260.0
sg11
I00
sg12
F200000.0
sg13
F388167.0
sg14
F0.3141933207333755
ssS'WHITE JR THOMAS E'
p221
(dp222
g3
F317543.0
sg4
F0.0
sg5
F1934359.0
sg6
F450000.0
sg7
F1.417130908254945
sg8
F15144123.0
sg9
F0.0
sg10
F1297049.0
sg11
I00
sg12
F0.0
sg13
F13847074.0
sg14
F0.23263520370313887
ssS'CHRISTODOULOU DIOMEDES'
p223
(dp224
g3
F0.0
sg4
F0.0
sg5
F0.0
sg6
F0.0
sg7
F0.0
sg8
F6077885.0
sg9
F0.0
sg10
F5127155.0
sg11
I00
sg12
F0.0
sg13
F950730.0
sg14
F0.0
ssS'ALLEN PHILLIP K'
p225
(dp226
g3
F201955.0
sg4
F2902.0
sg5
F4484442.0
sg6
F4175000.0
sg7
F20.672922185635414
sg8
F1729541.0
sg9
F1407.0
sg10
F1729541.0
sg11
I00
sg12
F304805.0
sg13
F126027.0
sg14
F0.9309965431596617
ssS'SHARP VICTORIA T'
p227
(dp228
g3
F248146.0
sg4
F3136.0
sg5
F1576511.0
sg6
F600000.0
sg7
F2.417931379107461
sg8
F494136.0
sg9
F2477.0
sg10
F281073.0
sg11
I00
sg12
F422158.0
sg13
F213063.0
sg14
F0.38058725882661143
ssS'JAEDICKE ROBERT'
p229
(dp230
g3
F0.0
sg4
F0.0
sg5
F83750.0
sg6
F0.0
sg7
F0.0
sg8
F431750.0
sg9
F0.0
sg10
F431750.0
sg11
I00
sg12
F0.0
sg13
F44093.0
sg14
F0.0
ssS'WINOKUR JR. HERBERT S'
p231
(dp232
g3
F0.0
sg4
F0.0
sg5
F84992.0
sg6
F0.0
sg7
F0.0
sg8
F0.0
sg9
F0.0
sg10
F0.0
sg11
I00
sg12
F0.0
sg13
F0.0
sg14
F0.0
ssS'BROWN MICHAEL'
p233
(dp234
g3
F0.0
sg4
F1486.0
sg5
F49288.0
sg6
F0.0
sg7
F0.0
sg8
F0.0
sg9
F761.0
sg10
F0.0
sg11
I00
sg12
F0.0
sg13
F0.0
sg14
F0.0
ssS'BADUM JAMES P'
p235
(dp236
g3
F0.0
sg4
F0.0
sg5
F182466.0
sg6
F0.0
sg7
F0.0
sg8
F257817.0
sg9
F0.0
sg10
F257817.0
sg11
I00
sg12
F0.0
sg13
F0.0
sg14
F0.0
ssS'HUGHES JAMES A'
p237
(dp238
g3
F0.0
sg4
F719.0
sg5
F0.0
sg6
F0.0
sg7
F0.0
sg8
F1118394.0
sg9
F589.0
sg10
F754966.0
sg11
I00
sg12
F0.0
sg13
F363428.0
sg14
F0.0
ssS'REYNOLDS LAWRENCE'
p239
(dp240
g3
F76399.0
sg4
F0.0
sg5
F394475.0
sg6
F100000.0
sg7
F1.3089176559902616
sg8
F4221891.0
sg9
F0.0
sg10
F4160672.0
sg11
I00
sg12
F156250.0
sg13
F201483.0
sg14
F0.2535014893212498
ssS'DIMICHELE RICHARD G'
p241
(dp242
g3
F262788.0
sg4
F0.0
sg5
F2368151.0
sg6
F1000000.0
sg7
F3.8053487982708494
sg8
F8317782.0
sg9
F0.0
sg10
F8191755.0
sg11
I00
sg12
F694862.0
sg13
F126027.0
sg14
F0.42227037042823706
ssS'BHATNAGAR SANJAY'
p243
(dp244
g3
F0.0
sg4
F523.0
sg5
F137864.0
sg6
F0.0
sg7
F0.0
sg8
F15456290.0
sg9
F463.0
sg10
F15456290.0
sg11
I00
sg12
F0.0
sg13
F2604490.0
sg14
F0.0
ssS'CARTER REBECCA C'
p245
(dp246
g3
F261809.0
sg4
F312.0
sg5
F477557.0
sg6
F300000.0
sg7
F1.14587351848103
sg8
F0.0
sg9
F196.0
sg10
F0.0
sg11
I00
sg12
F75000.0
sg13
F307301.0
sg14
F0.6281972623163308
ssS'BUCHANAN HAROLD G'
p247
(dp248
g3
F248017.0
sg4
F1088.0
sg5
F1054637.0
sg6
F500000.0
sg7
F2.015990839337626
sg8
F1014505.0
sg9
F23.0
sg10
F825464.0
sg11
I00
sg12
F304805.0
sg13
F189041.0
sg14
F0.47409677453000415
ssS'YEAP SOON'
p249
(dp250
g3
F0.0
sg4
F0.0
sg5
F55097.0
sg6
F0.0
sg7
F0.0
sg8
F192758.0
sg9
F0.0
sg10
F192758.0
sg11
I00
sg12
F0.0
sg13
F0.0
sg14
F0.0
ssS'MURRAY JULIA H'
p251
(dp252
g3
F229284.0
sg4
F2192.0
sg5
F812194.0
sg6
F400000.0
sg7
F1.744561330053558
sg8
F597461.0
sg9
F395.0
sg10
F400478.0
sg11
I00
sg12
F125000.0
sg13
F196983.0
sg14
F0.4924931728133919
ssS'GARLAND C KEVIN'
p253
(dp254
g3
F231946.0
sg4
F209.0
sg5
F1566469.0
sg6
F850000.0
sg7
F3.6646460814155017
sg8
F896153.0
sg9
F178.0
sg10
F636246.0
sg11
I00
sg12
F375304.0
sg13
F259907.0
sg14
F0.5426216541789208
ssS'DODSON KEITH'
p255
(dp256
g3
F221003.0
sg4
F176.0
sg5
F319941.0
sg6
F70000.0
sg7
F0.3167377818400655
sg8
F0.0
sg9
F114.0
sg10
F0.0
sg11
I00
sg12
F0.0
sg13
F0.0
sg14
F0.21879033946883958
ssS'YEAGER F SCOTT'
p257
(dp258
g3
F158403.0
sg4
F0.0
sg5
F360300.0
sg6
F0.0
sg7
F0.0
sg8
F11884758.0
sg9
F0.0
sg10
F8308552.0
sg11
I01
sg12
F0.0
sg13
F3576206.0
sg14
F0.0
ssS'HIRKO JOSEPH'
p259
(dp260
g3
F0.0
sg4
F0.0
sg5
F91093.0
sg6
F0.0
sg7
F0.0
sg8
F30766064.0
sg9
F0.0
sg10
F30766064.0
sg11
I01
sg12
F0.0
sg13
F0.0
sg14
F0.0
ssS'DIETRICH JANET R'
p261
(dp262
g3
F250100.0
sg4
F2572.0
sg5
F1410464.0
sg6
F600000.0
sg7
F2.3990403838464616
sg8
F1865087.0
sg9
F1902.0
sg10
F1550019.0
sg11
I00
sg12
F556416.0
sg13
F315068.0
sg14
F0.4253919277627788
ssS'DERRICK JR. JAMES V'
p263
(dp264
g3
F492375.0
sg4
F2181.0
sg5
F550981.0
sg6
F800000.0
sg7
F1.6247778624016247
sg8
F8831913.0
sg9
F1401.0
sg10
F8831913.0
sg11
I00
sg12
F484000.0
sg13
F1787380.0
sg14
F1.4519556935720106
ssS'FREVERT MARK A'
p265
(dp266
g3
F1060932.0
sg4
F3275.0
sg5
F17252530.0
sg6
F2000000.0
sg7
F1.885134956811558
sg8
F14622185.0
sg9
F2979.0
sg10
F10433518.0
sg11
I00
sg12
F1617011.0
sg13
F4188667.0
sg14
F0.1159250266482655
ssS'PAI LOU L'
p267
(dp268
g3
F261879.0
sg4
F0.0
sg5
F3123383.0
sg6
F1000000.0
sg7
F3.8185574253758414
sg8
F23817930.0
sg9
F0.0
sg10
F15364167.0
sg11
I00
sg12
F0.0
sg13
F8453763.0
sg14
F0.3201656665224854
ssS'BAY FRANKLIN R'
p269
(dp270
g3
F239671.0
sg4
F0.0
sg5
F827696.0
sg6
F400000.0
sg7
F1.6689545251615756
sg8
F63014.0
sg9
F0.0
sg10
F0.0
sg11
I00
sg12
F0.0
sg13
F145796.0
sg14
F0.48326921961686414
ssS'HAYSLETT RODERICK J'
p271
(dp272
g3
F0.0
sg4
F2649.0
sg5
F0.0
sg6
F0.0
sg7
F0.0
sg8
F346663.0
sg9
F571.0
sg10
F0.0
sg11
I00
sg12
F0.0
sg13
F346663.0
sg14
F0.0
ssS'FUGH JOHN L'
p273
(dp274
g3
F0.0
sg4
F0.0
sg5
F50591.0
sg6
F0.0
sg7
F0.0
sg8
F176378.0
sg9
F0.0
sg10
F176378.0
sg11
I00
sg12
F0.0
sg13
F0.0
sg14
F0.0
ssS'FALLON JAMES B'
p275
(dp276
g3
F304588.0
sg4
F1755.0
sg5
F3676340.0
sg6
F2500000.0
sg7
F8.207808580771403
sg8
F2332399.0
sg9
F1604.0
sg10
F940257.0
sg11
I00
sg12
F374347.0
sg13
F1392142.0
sg14
F0.6800241544579664
ssS'KOENIG MARK E'
p277
(dp278
g3
F309946.0
sg4
F2374.0
sg5
F1587421.0
sg6
F700000.0
sg7
F2.2584579249288588
sg8
F1920055.0
sg9
F2271.0
sg10
F671737.0
sg11
I01
sg12
F300000.0
sg13
F1248318.0
sg14
F0.44096682606567505
ssS'SAVAGE FRANK'
p279
(dp280
g3
F0.0
sg4
F0.0
sg5
F3750.0
sg6
F0.0
sg7
F0.0
sg8
F0.0
sg9
F0.0
sg10
F0.0
sg11
I00
sg12
F0.0
sg13
F0.0
sg14
F0.0
ssS'IZZO LAWRENCE L'
p281
(dp282
g3
F85274.0
sg4
F496.0
sg5
F1979596.0
sg6
F0.0
sg7
F0.0
sg8
F5819980.0
sg9
F437.0
sg10
F2165172.0
sg11
I00
sg12
F312500.0
sg13
F3654808.0
sg14
F0.0
ssS'TILNEY ELIZABETH A'
p283
(dp284
g3
F247338.0
sg4
F460.0
sg5
F399393.0
sg6
F300000.0
sg7
F1.2129151201998885
sg8
F1168042.0
sg9
F379.0
sg10
F591250.0
sg11
I00
sg12
F275000.0
sg13
F576792.0
sg14
F0.7511398547295521
ssS'MARTIN AMANDA K'
p285
(dp286
g3
F349487.0
sg4
F1522.0
sg5
F8407016.0
sg6
F0.0
sg7
F0.0
sg8
F2070306.0
sg9
F477.0
sg10
F2070306.0
sg11
I00
sg12
F5145434.0
sg13
F0.0
sg14
F0.0
ssS'BUY RICHARD B'
p287
(dp288
g3
F330546.0
sg4
F3523.0
sg5
F2355702.0
sg6
F900000.0
sg7
F2.722767784211577
sg8
F3444470.0
sg9
F2333.0
sg10
F2542813.0
sg11
I00
sg12
F769862.0
sg13
F901657.0
sg14
F0.38205171961479
ssS'GRAMM WENDY L'
p289
(dp290
g3
F0.0
sg4
F0.0
sg5
F119292.0
sg6
F0.0
sg7
F0.0
sg8
F0.0
sg9
F0.0
sg10
F0.0
sg11
I00
sg12
F0.0
sg13
F0.0
sg14
F0.0
ssS'CAUSEY RICHARD A'
p291
(dp292
g3
F415189.0
sg4
F1892.0
sg5
F1868758.0
sg6
F1000000.0
sg7
F2.4085416521150607
sg8
F2502063.0
sg9
F1585.0
sg10
F0.0
sg11
I01
sg12
F350000.0
sg13
F2502063.0
sg14
F0.5351147660638778
ssS'TAYLOR MITCHELL S'
p293
(dp294
g3
F265214.0
sg4
F533.0
sg5
F1092663.0
sg6
F600000.0
sg7
F2.2623240100447184
sg8
F3745048.0
sg9
F300.0
sg10
F3181250.0
sg11
I00
sg12
F0.0
sg13
F563798.0
sg14
F0.5491171568910085
ssS'DONAHUE JR JEFFREY M'
p295
(dp296
g3
F278601.0
sg4
F865.0
sg5
F875760.0
sg6
F800000.0
sg7
F2.8714900520816506
sg8
F1080988.0
sg9
F772.0
sg10
F765920.0
sg11
I00
sg12
F0.0
sg13
F315068.0
sg14
F0.9134922809902256
ssS'GLISAN JR BEN F'
p297
(dp298
g3
F274975.0
sg4
F873.0
sg5
F1272284.0
sg6
F600000.0
sg7
F2.1820165469588146
sg8
F778546.0
sg9
F874.0
sg10
F384728.0
sg11
I01
sg12
F71023.0
sg13
F393818.0
sg14
F0.4715928204709012
ss.